; Function Attrs: nounwind uwtable
define void @CONF_set_nconf(ptr noundef %0, ptr noundef %1) local_unnamed_addr #0 {
  %3 = load ptr, ptr @default_CONF_method, align 8, !tbaa !3
  %4 = icmp eq ptr %3, null
  br i1 %4, label %5, label %7

5:                                                ; preds = %2
  %6 = tail call ptr @NCONF_default() #15
  store ptr %6, ptr @default_CONF_method, align 8, !tbaa !3
  br label %7

7:                                                ; preds = %5, %2
  %8 = phi ptr [ %6, %5 ], [ %3, %2 ]
  %9 = getelementptr inbounds nuw i8, ptr %8, i64 16
  %10 = load ptr, ptr %9, align 8, !tbaa !8
  %11 = tail call i32 %10(ptr noundef %0) #15
  %12 = getelementptr inbounds nuw i8, ptr %0, i64 16
  store ptr %1, ptr %12, align 8, !tbaa !11
  ret void
}